target datalayout = "e-m:e-p270:32:32-p271:32:32-p272:64:64-i64:64-i128:128-f80:128-n8:16:32:64-S128"
target triple = "x86_64-pc-linux-gnu"

%struct.Min_Cube_t_ = type { ptr, i32, [1 x i32] }
%struct.Abc_Obj_t_ = type { ptr, ptr, i32, i32, %struct.Vec_Int_t_, %struct.Vec_Int_t_, %union.anon, %union.anon.0 }
%struct.Vec_Int_t_ = type { i32, i32, ptr }
%union.anon = type { ptr }
%union.anon.0 = type { ptr }
%struct.Abc_Ntk_t_ = type { i32, i32, ptr, ptr, ptr, ptr, ptr, ptr, ptr, ptr, ptr, ptr, ptr, [11 x i32], i32, i32, i32, i32, ptr, i32, ptr, ptr, i32, i32, i32, double, i32, %struct.Vec_Int_t_, ptr, ptr, ptr, ptr, ptr, float, i32, ptr, ptr, ptr, ptr, ptr, ptr, ptr, ptr, ptr, ptr, ptr, ptr, ptr, ptr, ptr, ptr, ptr, ptr, ptr, ptr, ptr, ptr }
%struct.Cov_Obj_t_ = type { [3 x ptr], ptr }
%struct.Vec_Ptr_t_ = type { i32, i32, ptr }
%struct.Cov_Man_t_ = type { i32, i32, i32, ptr, ptr, ptr, ptr, i32, i32, ptr, ptr, ptr, ptr, ptr, ptr, i32, i32, i32, i32 }

; Function Attrs: inlinehint nounwind uwtable
define internal ptr @Vec_PtrEntry(ptr noundef %0, i32 noundef %1) #3 {
  %3 = alloca ptr, align 8
  %4 = alloca i32, align 4
  store ptr %0, ptr %3, align 8, !tbaa !72
  store i32 %1, ptr %4, align 4, !tbaa !14
  %5 = load ptr, ptr %3, align 8, !tbaa !72
  %6 = getelementptr inbounds nuw %struct.Vec_Ptr_t_, ptr %5, i32 0, i32 2
  %7 = load ptr, ptr %6, align 8, !tbaa !53
  %8 = load i32, ptr %4, align 4, !tbaa !14
  %9 = sext i32 %8 to i64
  %10 = getelementptr inbounds ptr, ptr %7, i64 %9
  %11 = load ptr, ptr %10, align 8, !tbaa !56
  ret ptr %11
}

; Function Attrs: inlinehint nounwind uwtable
define internal ptr @Abc_ObjGetStr(ptr noundef %0) #3 {
  %2 = alloca ptr, align 8
  store ptr %0, ptr %2, align 8, !tbaa !8
  %3 = load ptr, ptr %2, align 8, !tbaa !8
  %4 = getelementptr inbounds nuw %struct.Abc_Obj_t_, ptr %3, i32 0, i32 0
  %5 = load ptr, ptr %4, align 8, !tbaa !16
  %6 = getelementptr inbounds nuw %struct.Abc_Ntk_t_, ptr %5, i32 0, i32 32
  %7 = load ptr, ptr %6, align 8, !tbaa !73
  %8 = getelementptr inbounds nuw %struct.Cov_Man_t_, ptr %7, i32 0, i32 4
  %9 = load ptr, ptr %8, align 8, !tbaa !74
  %10 = load ptr, ptr %2, align 8, !tbaa !8
  %11 = getelementptr inbounds nuw %struct.Abc_Obj_t_, ptr %10, i32 0, i32 2
  %12 = load i32, ptr %11, align 8, !tbaa !77
  %13 = call ptr @Vec_PtrEntry(ptr noundef %9, i32 noundef %12)
  ret ptr %13
}

; Function Attrs: inlinehint nounwind uwtable
define internal ptr @Abc_NtkCreateNode(ptr noundef %0) #3 {
  %2 = alloca ptr, align 8
  store ptr %0, ptr %2, align 8, !tbaa !3
  %3 = load ptr, ptr %2, align 8, !tbaa !3
  %4 = call ptr @Abc_NtkCreateObj(ptr noundef %3, i32 noundef 7)
  ret ptr %4
}

; Function Attrs: inlinehint nounwind uwtable
define internal i32 @Min_CoverCountCubes(ptr noundef %0) #3 {
  %2 = alloca ptr, align 8
  %3 = alloca ptr, align 8
  %4 = alloca i32, align 4
  store ptr %0, ptr %2, align 8, !tbaa !10
  call void @llvm.lifetime.start.p0(i64 8, ptr %3) #7
  call void @llvm.lifetime.start.p0(i64 4, ptr %4) #7
  store i32 0, ptr %4, align 4, !tbaa !14
  %5 = load ptr, ptr %2, align 8, !tbaa !10
  store ptr %5, ptr %3, align 8, !tbaa !10
  br label %6

6:                                                ; preds = %12, %1
  %7 = load ptr, ptr %3, align 8, !tbaa !10
  %8 = icmp ne ptr %7, null
  br i1 %8, label %9, label %16

9:                                                ; preds = %6
  %10 = load i32, ptr %4, align 4, !tbaa !14
  %11 = add nsw i32 %10, 1
  store i32 %11, ptr %4, align 4, !tbaa !14
  br label %12

12:                                               ; preds = %9
  %13 = load ptr, ptr %3, align 8, !tbaa !10
  %14 = getelementptr inbounds nuw %struct.Min_Cube_t_, ptr %13, i32 0, i32 0
  %15 = load ptr, ptr %14, align 8, !tbaa !45
  store ptr %15, ptr %3, align 8, !tbaa !10
  br label %6, !llvm.loop !50

16:                                               ; preds = %6
  %17 = load i32, ptr %4, align 4, !tbaa !14
  call void @llvm.lifetime.end.p0(i64 4, ptr %4) #7
  call void @llvm.lifetime.end.p0(i64 8, ptr %3) #7
  ret i32 %17
}

; Function Attrs: inlinehint nounwind uwtable
define internal ptr @Abc_NtkObj(ptr noundef %0, i32 noundef %1) #3 {
  %3 = alloca ptr, align 8
  %4 = alloca i32, align 4
  store ptr %0, ptr %3, align 8, !tbaa !3
  store i32 %1, ptr %4, align 4, !tbaa !14
  %5 = load ptr, ptr %3, align 8, !tbaa !3
  %6 = getelementptr inbounds nuw %struct.Abc_Ntk_t_, ptr %5, i32 0, i32 5
  %7 = load ptr, ptr %6, align 8, !tbaa !41
  %8 = load i32, ptr %4, align 4, !tbaa !14
  %9 = call ptr @Vec_PtrEntry(ptr noundef %7, i32 noundef %8)
  ret ptr %9
}

; Function Attrs: inlinehint nounwind uwtable
define internal i32 @Vec_IntEntry(ptr noundef %0, i32 noundef %1) #3 {
  %3 = alloca ptr, align 8
  %4 = alloca i32, align 4
  store ptr %0, ptr %3, align 8, !tbaa !12
  store i32 %1, ptr %4, align 4, !tbaa !14
  %5 = load ptr, ptr %3, align 8, !tbaa !12
  %6 = getelementptr inbounds nuw %struct.Vec_Int_t_, ptr %5, i32 0, i32 2
  %7 = load ptr, ptr %6, align 8, !tbaa !37
  %8 = load i32, ptr %4, align 4, !tbaa !14
  %9 = sext i32 %8 to i64
  %10 = getelementptr inbounds i32, ptr %7, i64 %9
  %11 = load i32, ptr %10, align 4, !tbaa !14
  ret i32 %11
}

; Function Attrs: inlinehint nounwind uwtable
define internal i32 @Vec_IntSize(ptr noundef %0) #3 {
  %2 = alloca ptr, align 8
  store ptr %0, ptr %2, align 8, !tbaa !12
  %3 = load ptr, ptr %2, align 8, !tbaa !12
  %4 = getelementptr inbounds nuw %struct.Vec_Int_t_, ptr %3, i32 0, i32 1
  %5 = load i32, ptr %4, align 4, !tbaa !21
  ret i32 %5
}

; Function Attrs: inlinehint nounwind uwtable
define internal ptr @Abc_ObjGetCover2(ptr noundef %0) #3 {
  %2 = alloca ptr, align 8
  store ptr %0, ptr %2, align 8, !tbaa !8
  %3 = load ptr, ptr %2, align 8, !tbaa !8
  %4 = call ptr @Abc_ObjGetStr(ptr noundef %3)
  %5 = getelementptr inbounds nuw %struct.Cov_Obj_t_, ptr %4, i32 0, i32 0
  %6 = getelementptr inbounds [3 x ptr], ptr %5, i64 0, i64 2
  %7 = load ptr, ptr %6, align 8, !tbaa !10
  ret ptr %7
}

; Function Attrs: inlinehint nounwind uwtable
define internal ptr @Abc_ObjGetSupp(ptr noundef %0) #3 {
  %2 = alloca ptr, align 8
  store ptr %0, ptr %2, align 8, !tbaa !8
  %3 = load ptr, ptr %2, align 8, !tbaa !8
  %4 = call ptr @Abc_ObjGetStr(ptr noundef %3)
  %5 = getelementptr inbounds nuw %struct.Cov_Obj_t_, ptr %4, i32 0, i32 1
  %6 = load ptr, ptr %5, align 8, !tbaa !48
  ret ptr %6
}

; Function Attrs: nounwind uwtable
define ptr @Abc_NtkCovDeriveInv(ptr noundef %0, ptr noundef %1, i32 noundef %2) #0 {
  %4 = alloca ptr, align 8
  %5 = alloca ptr, align 8
  %6 = alloca ptr, align 8
  %7 = alloca i32, align 4
  store ptr %0, ptr %5, align 8, !tbaa !3
  store ptr %1, ptr %6, align 8, !tbaa !8
  store i32 %2, ptr %7, align 4, !tbaa !14
  %8 = load i32, ptr %7, align 4, !tbaa !14
  %9 = icmp ne i32 %8, 0
  br i1 %9, label %14, label %10

10:                                               ; preds = %3
  %11 = load ptr, ptr %6, align 8, !tbaa !8
  %12 = getelementptr inbounds nuw %struct.Abc_Obj_t_, ptr %11, i32 0, i32 7
  %13 = load ptr, ptr %12, align 8, !tbaa !20
  store ptr %13, ptr %4, align 8
  br label %37

14:                                               ; preds = %3
  %15 = load ptr, ptr %6, align 8, !tbaa !8
  %16 = getelementptr inbounds nuw %struct.Abc_Obj_t_, ptr %15, i32 0, i32 7
  %17 = load ptr, ptr %16, align 8, !tbaa !20
  %18 = getelementptr inbounds nuw %struct.Abc_Obj_t_, ptr %17, i32 0, i32 7
  %19 = load ptr, ptr %18, align 8, !tbaa !20
  %20 = icmp eq ptr %19, null
  br i1 %20, label %21, label %31

21:                                               ; preds = %14
  %22 = load ptr, ptr %5, align 8, !tbaa !3
  %23 = load ptr, ptr %6, align 8, !tbaa !8
  %24 = getelementptr inbounds nuw %struct.Abc_Obj_t_, ptr %23, i32 0, i32 7
  %25 = load ptr, ptr %24, align 8, !tbaa !20
  %26 = call ptr @Abc_NtkCreateNodeInv(ptr noundef %22, ptr noundef %25)
  %27 = load ptr, ptr %6, align 8, !tbaa !8
  %28 = getelementptr inbounds nuw %struct.Abc_Obj_t_, ptr %27, i32 0, i32 7
  %29 = load ptr, ptr %28, align 8, !tbaa !20
  %30 = getelementptr inbounds nuw %struct.Abc_Obj_t_, ptr %29, i32 0, i32 7
  store ptr %26, ptr %30, align 8, !tbaa !20
  br label %31

31:                                               ; preds = %21, %14
  %32 = load ptr, ptr %6, align 8, !tbaa !8
  %33 = getelementptr inbounds nuw %struct.Abc_Obj_t_, ptr %32, i32 0, i32 7
  %34 = load ptr, ptr %33, align 8, !tbaa !20
  %35 = getelementptr inbounds nuw %struct.Abc_Obj_t_, ptr %34, i32 0, i32 7
  %36 = load ptr, ptr %35, align 8, !tbaa !20
  store ptr %36, ptr %4, align 8
  br label %37

37:                                               ; preds = %31, %10
  %38 = load ptr, ptr %4, align 8
  ret ptr %38
}

; Function Attrs: nounwind uwtable
define ptr @Abc_NtkCovDeriveNodeInv_rec(ptr noundef %0, ptr noundef %1, ptr noundef %2, i32 noundef %3) #0 {
  %5 = alloca ptr, align 8
  %6 = alloca ptr, align 8
  %7 = alloca ptr, align 8
  %8 = alloca ptr, align 8
  %9 = alloca i32, align 4
  %10 = alloca ptr, align 8
  %11 = alloca ptr, align 8
  %12 = alloca ptr, align 8
  %13 = alloca ptr, align 8
  %14 = alloca ptr, align 8
  %15 = alloca ptr, align 8
  %16 = alloca i32, align 4
  %17 = alloca i32, align 4
  %18 = alloca i32, align 4
  %19 = alloca i32, align 4
  store ptr %0, ptr %6, align 8, !tbaa !42
  store ptr %1, ptr %7, align 8, !tbaa !3
  store ptr %2, ptr %8, align 8, !tbaa !8
  store i32 %3, ptr %9, align 4, !tbaa !14
  call void @llvm.lifetime.start.p0(i64 8, ptr %10) #7
  call void @llvm.lifetime.start.p0(i64 8, ptr %11) #7
  call void @llvm.lifetime.start.p0(i64 8, ptr %12) #7
  call void @llvm.lifetime.start.p0(i64 8, ptr %13) #7
  call void @llvm.lifetime.start.p0(i64 8, ptr %14) #7
  call void @llvm.lifetime.start.p0(i64 8, ptr %15) #7
  call void @llvm.lifetime.start.p0(i64 4, ptr %16) #7
  call void @llvm.lifetime.start.p0(i64 4, ptr %17) #7
  call void @llvm.lifetime.start.p0(i64 4, ptr %18) #7
  %20 = load ptr, ptr %8, align 8, !tbaa !8
  %21 = getelementptr inbounds nuw %struct.Abc_Obj_t_, ptr %20, i32 0, i32 7
  %22 = load ptr, ptr %21, align 8, !tbaa !20
  %23 = icmp ne ptr %22, null
  br i1 %23, label %24, label %29

24:                                               ; preds = %4
  %25 = load ptr, ptr %7, align 8, !tbaa !3
  %26 = load ptr, ptr %8, align 8, !tbaa !8
  %27 = load i32, ptr %9, align 4, !tbaa !14
  %28 = call ptr @Abc_NtkCovDeriveInv(ptr noundef %25, ptr noundef %26, i32 noundef %27)
  store ptr %28, ptr %5, align 8
  store i32 1, ptr %19, align 4
  br label %111

29:                                               ; preds = %4
  %30 = load ptr, ptr %8, align 8, !tbaa !8
  %31 = call ptr @Abc_ObjGetSupp(ptr noundef %30)
  store ptr %31, ptr %15, align 8, !tbaa !12
  %32 = load ptr, ptr %8, align 8, !tbaa !8
  %33 = call ptr @Abc_ObjGetCover2(ptr noundef %32)
  store ptr %33, ptr %10, align 8, !tbaa !10
  store i32 0, ptr %18, align 4, !tbaa !14
  br label %34

34:                                               ; preds = %55, %29
  %35 = load i32, ptr %18, align 4, !tbaa !14
  %36 = load ptr, ptr %15, align 8, !tbaa !12
  %37 = call i32 @Vec_IntSize(ptr noundef %36)
  %38 = icmp slt i32 %35, %37
  br i1 %38, label %39, label %43

39:                                               ; preds = %34
  %40 = load ptr, ptr %15, align 8, !tbaa !12
  %41 = load i32, ptr %18, align 4, !tbaa !14
  %42 = call i32 @Vec_IntEntry(ptr noundef %40, i32 noundef %41)
  store i32 %42, ptr %16, align 4, !tbaa !14
  br label %43

43:                                               ; preds = %39, %34
  %44 = phi i1 [ false, %34 ], [ true, %39 ]
  br i1 %44, label %45, label %58

45:                                               ; preds = %43
  %46 = load ptr, ptr %8, align 8, !tbaa !8
  %47 = getelementptr inbounds nuw %struct.Abc_Obj_t_, ptr %46, i32 0, i32 0
  %48 = load ptr, ptr %47, align 8, !tbaa !16
  %49 = load i32, ptr %16, align 4, !tbaa !14
  %50 = call ptr @Abc_NtkObj(ptr noundef %48, i32 noundef %49)
  store ptr %50, ptr %14, align 8, !tbaa !8
  %51 = load ptr, ptr %6, align 8, !tbaa !42
  %52 = load ptr, ptr %7, align 8, !tbaa !3
  %53 = load ptr, ptr %14, align 8, !tbaa !8
  %54 = call ptr @Abc_NtkCovDeriveNodeInv_rec(ptr noundef %51, ptr noundef %52, ptr noundef %53, i32 noundef 0)
  br label %55

55:                                               ; preds = %45
  %56 = load i32, ptr %18, align 4, !tbaa !14
  %57 = add nsw i32 %56, 1
  store i32 %57, ptr %18, align 4, !tbaa !14
  br label %34, !llvm.loop !58

58:                                               ; preds = %43
  %59 = load ptr, ptr %10, align 8, !tbaa !10
  %60 = call i32 @Min_CoverCountCubes(ptr noundef %59)
  store i32 %60, ptr %17, align 4, !tbaa !14
  %61 = load i32, ptr %17, align 4, !tbaa !14
  %62 = icmp eq i32 %61, 0
  br i1 %62, label %63, label %66

63:                                               ; preds = %58
  %64 = load ptr, ptr %7, align 8, !tbaa !3
  %65 = call ptr @Abc_NtkCreateNodeConst0(ptr noundef %64)
  store ptr %65, ptr %13, align 8, !tbaa !8
  br label %103

66:                                               ; preds = %58
  %67 = load i32, ptr %17, align 4, !tbaa !14
  %68 = icmp eq i32 %67, 1
  br i1 %68, label %69, label %75

69:                                               ; preds = %66
  %70 = load ptr, ptr %7, align 8, !tbaa !3
  %71 = load ptr, ptr %8, align 8, !tbaa !8
  %72 = load ptr, ptr %10, align 8, !tbaa !10
  %73 = load ptr, ptr %15, align 8, !tbaa !12
  %74 = call ptr @Abc_NtkCovDeriveCubeInv(ptr noundef %70, ptr noundef %71, ptr noundef %72, ptr noundef %73)
  store ptr %74, ptr %13, align 8, !tbaa !8
  br label %102

75:                                               ; preds = %66
  %76 = load ptr, ptr %7, align 8, !tbaa !3
  %77 = call ptr @Abc_NtkCreateNode(ptr noundef %76)
  store ptr %77, ptr %13, align 8, !tbaa !8
  %78 = load ptr, ptr %10, align 8, !tbaa !10
  store ptr %78, ptr %11, align 8, !tbaa !10
  br label %79

79:                                               ; preds = %90, %75
  %80 = load ptr, ptr %11, align 8, !tbaa !10
  %81 = icmp ne ptr %80, null
  br i1 %81, label %82, label %94

82:                                               ; preds = %79
  %83 = load ptr, ptr %7, align 8, !tbaa !3
  %84 = load ptr, ptr %8, align 8, !tbaa !8
  %85 = load ptr, ptr %11, align 8, !tbaa !10
  %86 = load ptr, ptr %15, align 8, !tbaa !12
  %87 = call ptr @Abc_NtkCovDeriveCubeInv(ptr noundef %83, ptr noundef %84, ptr noundef %85, ptr noundef %86)
  store ptr %87, ptr %12, align 8, !tbaa !8
  %88 = load ptr, ptr %13, align 8, !tbaa !8
  %89 = load ptr, ptr %12, align 8, !tbaa !8
  call void @Abc_ObjAddFanin(ptr noundef %88, ptr noundef %89)
  br label %90

90:                                               ; preds = %82
  %91 = load ptr, ptr %11, align 8, !tbaa !10
  %92 = getelementptr inbounds nuw %struct.Min_Cube_t_, ptr %91, i32 0, i32 0
  %93 = load ptr, ptr %92, align 8, !tbaa !45
  store ptr %93, ptr %11, align 8, !tbaa !10
  br label %79, !llvm.loop !59

94:                                               ; preds = %79
  %95 = load ptr, ptr %7, align 8, !tbaa !3
  %96 = getelementptr inbounds nuw %struct.Abc_Ntk_t_, ptr %95, i32 0, i32 30
  %97 = load ptr, ptr %96, align 8, !tbaa !24
  %98 = load i32, ptr %17, align 4, !tbaa !14
  %99 = call ptr @Abc_SopCreateXorSpecial(ptr noundef %97, i32 noundef %98)
  %100 = load ptr, ptr %13, align 8, !tbaa !8
  %101 = getelementptr inbounds nuw %struct.Abc_Obj_t_, ptr %100, i32 0, i32 6
  store ptr %99, ptr %101, align 8, !tbaa !20
  br label %102

102:                                              ; preds = %94, %69
  br label %103

103:                                              ; preds = %102, %63
  %104 = load ptr, ptr %13, align 8, !tbaa !8
  %105 = load ptr, ptr %8, align 8, !tbaa !8
  %106 = getelementptr inbounds nuw %struct.Abc_Obj_t_, ptr %105, i32 0, i32 7
  store ptr %104, ptr %106, align 8, !tbaa !20
  %107 = load ptr, ptr %7, align 8, !tbaa !3
  %108 = load ptr, ptr %8, align 8, !tbaa !8
  %109 = load i32, ptr %9, align 4, !tbaa !14
  %110 = call ptr @Abc_NtkCovDeriveInv(ptr noundef %107, ptr noundef %108, i32 noundef %109)
  store ptr %110, ptr %5, align 8
  store i32 1, ptr %19, align 4
  br label %111

111:                                              ; preds = %103, %24
  call void @llvm.lifetime.end.p0(i64 4, ptr %18) #7
  call void @llvm.lifetime.end.p0(i64 4, ptr %17) #7
  call void @llvm.lifetime.end.p0(i64 4, ptr %16) #7
  call void @llvm.lifetime.end.p0(i64 8, ptr %15) #7
  call void @llvm.lifetime.end.p0(i64 8, ptr %14) #7
  call void @llvm.lifetime.end.p0(i64 8, ptr %13) #7
  call void @llvm.lifetime.end.p0(i64 8, ptr %12) #7
  call void @llvm.lifetime.end.p0(i64 8, ptr %11) #7
  call void @llvm.lifetime.end.p0(i64 8, ptr %10) #7
  %112 = load ptr, ptr %5, align 8
  ret ptr %112
}