; Function Attrs: nounwind uwtable
define ptr @Abc_NtkCovDeriveNodeInv_rec(ptr noundef readnone captures(none) %0, ptr noundef %1, ptr noundef captures(none) %2, i32 noundef %3) local_unnamed_addr #0 {
  %5 = getelementptr inbounds nuw i8, ptr %2, i64 64
  %6 = load ptr, ptr %5, align 8, !tbaa !34
  %.not = icmp eq ptr %6, null
  br i1 %.not, label %12, label %7

7:                                                ; preds = %4
  %.not.i = icmp eq i32 %3, 0
  br i1 %.not.i, label %Abc_NtkCovDeriveInv.exit, label %8

8:                                                ; preds = %7
  %9 = getelementptr inbounds nuw i8, ptr %6, i64 64
  %10 = load ptr, ptr %9, align 8, !tbaa !34
  %11 = icmp eq ptr %10, null
  br i1 %11, label %Abc_NtkCovDeriveInv.exit.sink.split, label %Abc_NtkCovDeriveInv.exit

12:                                               ; preds = %4
  %.val48 = load ptr, ptr %2, align 8, !tbaa !13
  %13 = getelementptr i8, ptr %2, i64 16
  %.val49 = load i32, ptr %13, align 8, !tbaa !40
  %14 = getelementptr i8, ptr %.val48, i64 272
  %.val48.val = load ptr, ptr %14, align 8, !tbaa !41
  %15 = getelementptr i8, ptr %.val48.val, i64 24
  %.val48.val.val = load ptr, ptr %15, align 8, !tbaa !42
  %16 = getelementptr i8, ptr %.val48.val.val, i64 8
  %.val48.val.val.val = load ptr, ptr %16, align 8, !tbaa !31
  %17 = sext i32 %.val49 to i64
  %18 = getelementptr inbounds ptr, ptr %.val48.val.val.val, i64 %17
  %19 = load ptr, ptr %18, align 8, !tbaa !33
  %20 = getelementptr inbounds nuw i8, ptr %19, i64 24
  %21 = load ptr, ptr %20, align 8, !tbaa !45
  %22 = getelementptr inbounds nuw i8, ptr %19, i64 16
  %23 = load ptr, ptr %22, align 8, !tbaa !47
  %24 = getelementptr i8, ptr %21, i64 4
  %.val5261 = load i32, ptr %24, align 4, !tbaa !3
  %25 = icmp sgt i32 %.val5261, 0
  br i1 %25, label %.lr.ph, label %.critedge

.lr.ph:                                           ; preds = %12
  %26 = getelementptr i8, ptr %21, i64 8
  br label %27

27:                                               ; preds = %.lr.ph, %27
  %indvars.iv = phi i64 [ 0, %.lr.ph ], [ %indvars.iv.next, %27 ]
  %.val = load ptr, ptr %26, align 8, !tbaa !11
  %28 = getelementptr inbounds nuw i32, ptr %.val, i64 %indvars.iv
  %29 = load i32, ptr %28, align 4, !tbaa !12
  %30 = load ptr, ptr %2, align 8, !tbaa !13
  %31 = getelementptr i8, ptr %30, i64 32
  %.val47 = load ptr, ptr %31, align 8, !tbaa !17
  %32 = getelementptr i8, ptr %.val47, i64 8
  %.val47.val = load ptr, ptr %32, align 8, !tbaa !31
  %33 = sext i32 %29 to i64
  %34 = getelementptr inbounds ptr, ptr %.val47.val, i64 %33
  %35 = load ptr, ptr %34, align 8, !tbaa !33
  %36 = tail call ptr @Abc_NtkCovDeriveNodeInv_rec(ptr noundef %0, ptr noundef %1, ptr noundef %35, i32 noundef 0)
  %indvars.iv.next = add nuw nsw i64 %indvars.iv, 1
  %.val52 = load i32, ptr %24, align 4, !tbaa !3
  %37 = sext i32 %.val52 to i64
  %38 = icmp slt i64 %indvars.iv.next, %37
  br i1 %38, label %27, label %.critedge, !llvm.loop !59

.critedge:                                        ; preds = %27, %12
  %.not5.i = icmp eq ptr %23, null
  br i1 %.not5.i, label %Min_CoverCountCubes.exit.thread, label %.lr.ph.i

.lr.ph.i:                                         ; preds = %.critedge, %.lr.ph.i
  %.07.i = phi i32 [ %39, %.lr.ph.i ], [ 0, %.critedge ]
  %.046.i = phi ptr [ %40, %.lr.ph.i ], [ %23, %.critedge ]
  %39 = add nuw nsw i32 %.07.i, 1
  %40 = load ptr, ptr %.046.i, align 8, !tbaa !50
  %.not.i53 = icmp eq ptr %40, null
  br i1 %.not.i53, label %Min_CoverCountCubes.exit, label %.lr.ph.i, !llvm.loop !52

Min_CoverCountCubes.exit:                         ; preds = %.lr.ph.i
  %cond = icmp eq i32 %.07.i, 0
  br i1 %cond, label %42, label %44

Min_CoverCountCubes.exit.thread:                  ; preds = %.critedge
  %41 = tail call ptr @Abc_NtkCreateNodeConst0(ptr noundef %1) #7
  br label %54

42:                                               ; preds = %Min_CoverCountCubes.exit
  %43 = tail call ptr @Abc_NtkCovDeriveCubeInv(ptr noundef %1, ptr noundef nonnull %2, ptr noundef nonnull %23, ptr noundef %21)
  br label %54

44:                                               ; preds = %Min_CoverCountCubes.exit
  %45 = tail call ptr @Abc_NtkCreateObj(ptr noundef %1, i32 noundef 7) #7
  br label %46

46:                                               ; preds = %44, %46
  %.04363 = phi ptr [ %23, %44 ], [ %48, %46 ]
  %47 = tail call ptr @Abc_NtkCovDeriveCubeInv(ptr noundef %1, ptr noundef nonnull %2, ptr noundef nonnull %.04363, ptr noundef %21)
  tail call void @Abc_ObjAddFanin(ptr noundef %45, ptr noundef %47) #7
  %48 = load ptr, ptr %.04363, align 8, !tbaa !50
  %.not46 = icmp eq ptr %48, null
  br i1 %.not46, label %49, label %46, !llvm.loop !60

49:                                               ; preds = %46
  %50 = getelementptr inbounds nuw i8, ptr %1, i64 256
  %51 = load ptr, ptr %50, align 8, !tbaa !37
  %52 = tail call ptr @Abc_SopCreateXorSpecial(ptr noundef %51, i32 noundef %39) #7
  %53 = getelementptr inbounds nuw i8, ptr %45, i64 56
  store ptr %52, ptr %53, align 8, !tbaa !34
  br label %54

54:                                               ; preds = %42, %49, %Min_CoverCountCubes.exit.thread
  %.044 = phi ptr [ %41, %Min_CoverCountCubes.exit.thread ], [ %43, %42 ], [ %45, %49 ]
  store ptr %.044, ptr %5, align 8, !tbaa !34
  %.not.i54 = icmp eq i32 %3, 0
  br i1 %.not.i54, label %Abc_NtkCovDeriveInv.exit, label %55

55:                                               ; preds = %54
  %56 = getelementptr inbounds nuw i8, ptr %.044, i64 64
  %57 = load ptr, ptr %56, align 8, !tbaa !34
  %58 = icmp eq ptr %57, null
  br i1 %58, label %Abc_NtkCovDeriveInv.exit.sink.split, label %Abc_NtkCovDeriveInv.exit

Abc_NtkCovDeriveInv.exit.sink.split:              ; preds = %55, %8
  %.044.sink = phi ptr [ %6, %8 ], [ %.044, %55 ]
  %59 = tail call ptr @Abc_NtkCreateNodeInv(ptr noundef %1, ptr noundef nonnull %.044.sink) #7
  %60 = load ptr, ptr %5, align 8, !tbaa !34
  %61 = getelementptr inbounds nuw i8, ptr %60, i64 64
  store ptr %59, ptr %61, align 8, !tbaa !34
  %.pre.i58 = load ptr, ptr %5, align 8, !tbaa !34
  br label %Abc_NtkCovDeriveInv.exit

Abc_NtkCovDeriveInv.exit:                         ; preds = %Abc_NtkCovDeriveInv.exit.sink.split, %55, %54, %8, %7
  %.pn.i.pn = phi ptr [ %2, %7 ], [ %6, %8 ], [ %2, %54 ], [ %.044, %55 ], [ %.pre.i58, %Abc_NtkCovDeriveInv.exit.sink.split ]
  %.042.in = getelementptr inbounds nuw i8, ptr %.pn.i.pn, i64 64
  %.042 = load ptr, ptr %.042.in, align 8, !tbaa !34
  ret ptr %.042
}